target datalayout = "e-m:e-p270:32:32-p271:32:32-p272:64:64-i64:64-i128:128-f80:128-n8:16:32:64-S128"
target triple = "x86_64-pc-linux-gnu"

%struct.lv_color_t = type { i8, i8, i8 }

@opa_saved = internal global i8 0, align 1
@__const.arc_core_cb.widths = private unnamed_addr constant [4 x i32] [i32 1, i32 5, i32 10, i32 100], align 16

; Function Attrs: nounwind uwtable
define internal void @add_to_cell(ptr noundef %0, i32 noundef %1, i32 noundef %2) #0 {
  %4 = alloca ptr, align 8
  %5 = alloca i32, align 4
  %6 = alloca i32, align 4
  store ptr %0, ptr %4, align 8, !tbaa !8
  store i32 %1, ptr %5, align 4, !tbaa !3
  store i32 %2, ptr %6, align 4, !tbaa !3
  %7 = load ptr, ptr %4, align 8, !tbaa !8
  %8 = load i32, ptr %5, align 4, !tbaa !3
  %9 = load i32, ptr %6, align 4, !tbaa !3
  call void @lv_obj_set_grid_cell(ptr noundef %7, i32 noundef 1, i32 noundef %8, i32 noundef 1, i32 noundef 1, i32 noundef %9, i32 noundef 1)
  ret void
}

; Function Attrs: nounwind uwtable
define internal ptr @arc_obj_create(ptr noundef %0, i32 noundef %1, i32 noundef %2, i32 noundef %3, float noundef %4, float noundef %5) #0 {
  %7 = alloca ptr, align 8
  %8 = alloca i32, align 4
  %9 = alloca i32, align 4
  %10 = alloca i32, align 4
  %11 = alloca float, align 4
  %12 = alloca float, align 4
  %13 = alloca ptr, align 8
  %14 = alloca %struct.lv_color_t, align 1
  %15 = alloca i24, align 4
  %16 = alloca %struct.lv_color_t, align 1
  %17 = alloca i24, align 4
  store ptr %0, ptr %7, align 8, !tbaa !8
  store i32 %1, ptr %8, align 4, !tbaa !3
  store i32 %2, ptr %9, align 4, !tbaa !3
  store i32 %3, ptr %10, align 4, !tbaa !3
  store float %4, ptr %11, align 4, !tbaa !61
  store float %5, ptr %12, align 4, !tbaa !61
  call void @llvm.lifetime.start.p0(i64 8, ptr %13) #5
  %18 = load ptr, ptr %7, align 8, !tbaa !8
  %19 = call ptr @lv_arc_create(ptr noundef %18)
  store ptr %19, ptr %13, align 8, !tbaa !8
  %20 = load ptr, ptr %13, align 8, !tbaa !8
  call void @lv_obj_remove_style_all(ptr noundef %20)
  %21 = load ptr, ptr %13, align 8, !tbaa !8
  %22 = load i32, ptr %10, align 4, !tbaa !3
  call void @lv_obj_set_style_arc_width(ptr noundef %21, i32 noundef %22, i32 noundef 0)
  %23 = load ptr, ptr %13, align 8, !tbaa !8
  %24 = call i24 @lv_color_white()
  store i24 %24, ptr %14, align 1
  call void @llvm.memcpy.p0.p0.i64(ptr align 4 %15, ptr align 1 %14, i64 3, i1 false)
  %25 = load i24, ptr %15, align 4
  call void @lv_obj_set_style_arc_color(ptr noundef %23, i24 %25, i32 noundef 0)
  %26 = load ptr, ptr %13, align 8, !tbaa !8
  %27 = load i8, ptr @opa_saved, align 1, !tbaa !7
  call void @lv_obj_set_style_opa(ptr noundef %26, i8 noundef zeroext %27, i32 noundef 0)
  %28 = load ptr, ptr %13, align 8, !tbaa !8
  %29 = load float, ptr %11, align 4, !tbaa !61
  %30 = load float, ptr %12, align 4, !tbaa !61
  call void @lv_arc_set_bg_angles(ptr noundef %28, float noundef %29, float noundef %30)
  %31 = load ptr, ptr %13, align 8, !tbaa !8
  call void @lv_obj_set_size(ptr noundef %31, i32 noundef 30, i32 noundef 30)
  %32 = load ptr, ptr %13, align 8, !tbaa !8
  %33 = call i24 @lv_color_hex3(i32 noundef 4080)
  store i24 %33, ptr %16, align 1
  call void @llvm.memcpy.p0.p0.i64(ptr align 4 %17, ptr align 1 %16, i64 3, i1 false)
  %34 = load i24, ptr %17, align 4
  call void @lv_obj_set_style_line_color(ptr noundef %32, i24 %34, i32 noundef 0)
  %35 = load ptr, ptr %13, align 8, !tbaa !8
  %36 = load i32, ptr %8, align 4, !tbaa !3
  %37 = load i32, ptr %9, align 4, !tbaa !3
  call void @add_to_cell(ptr noundef %35, i32 noundef %36, i32 noundef %37)
  %38 = load ptr, ptr %13, align 8, !tbaa !8
  call void @llvm.lifetime.end.p0(i64 8, ptr %13) #5
  ret ptr %38
}

; Function Attrs: nounwind uwtable
define internal void @arc_core_cb(ptr noundef %0, ptr noundef %1) #0 {
  %3 = alloca ptr, align 8
  %4 = alloca ptr, align 8
  %5 = alloca [4 x i32], align 16
  %6 = alloca i32, align 4
  %7 = alloca i32, align 4
  %8 = alloca i32, align 4
  %9 = alloca ptr, align 8
  store ptr %0, ptr %3, align 8, !tbaa !8
  store ptr %1, ptr %4, align 8, !tbaa !51
  call void @llvm.lifetime.start.p0(i64 16, ptr %5) #5
  call void @llvm.memcpy.p0.p0.i64(ptr align 16 %5, ptr align 16 @__const.arc_core_cb.widths, i64 16, i1 false)
  call void @llvm.lifetime.start.p0(i64 4, ptr %6) #5
  store i32 0, ptr %6, align 4, !tbaa !3
  br label %10

10:                                               ; preds = %56, %2
  %11 = load i32, ptr %6, align 4, !tbaa !3
  %12 = icmp ult i32 %11, 2
  br i1 %12, label %13, label %59

13:                                               ; preds = %10
  call void @llvm.lifetime.start.p0(i64 4, ptr %7) #5
  store i32 0, ptr %7, align 4, !tbaa !3
  br label %14

14:                                               ; preds = %52, %13
  %15 = load i32, ptr %7, align 4, !tbaa !3
  %16 = icmp ult i32 %15, 4
  br i1 %16, label %17, label %55

17:                                               ; preds = %14
  call void @llvm.lifetime.start.p0(i64 4, ptr %8) #5
  store i32 0, ptr %8, align 4, !tbaa !3
  br label %18

18:                                               ; preds = %48, %17
  %19 = load i32, ptr %8, align 4, !tbaa !3
  %20 = icmp ult i32 %19, 8
  br i1 %20, label %21, label %51

21:                                               ; preds = %18
  call void @llvm.lifetime.start.p0(i64 8, ptr %9) #5
  %22 = load ptr, ptr %3, align 8, !tbaa !8
  %23 = load i32, ptr %8, align 4, !tbaa !3
  %24 = load i32, ptr %7, align 4, !tbaa !3
  %25 = load i32, ptr %6, align 4, !tbaa !3
  %26 = mul i32 4, %25
  %27 = add i32 %24, %26
  %28 = load i32, ptr %7, align 4, !tbaa !3
  %29 = zext i32 %28 to i64
  %30 = getelementptr inbounds nuw [4 x i32], ptr %5, i64 0, i64 %29
  %31 = load i32, ptr %30, align 4, !tbaa !3
  %32 = load i32, ptr %8, align 4, !tbaa !3
  %33 = zext i32 %32 to i64
  %34 = getelementptr inbounds nuw [8 x [2 x float]], ptr @arc_core_cb.angles, i64 0, i64 %33
  %35 = getelementptr inbounds [2 x float], ptr %34, i64 0, i64 0
  %36 = load float, ptr %35, align 8, !tbaa !61
  %37 = load i32, ptr %8, align 4, !tbaa !3
  %38 = zext i32 %37 to i64
  %39 = getelementptr inbounds nuw [8 x [2 x float]], ptr @arc_core_cb.angles, i64 0, i64 %38
  %40 = getelementptr inbounds [2 x float], ptr %39, i64 0, i64 1
  %41 = load float, ptr %40, align 4, !tbaa !61
  %42 = call ptr @arc_obj_create(ptr noundef %22, i32 noundef %23, i32 noundef %27, i32 noundef %31, float noundef %36, float noundef %41)
  store ptr %42, ptr %9, align 8, !tbaa !8
  %43 = load ptr, ptr %9, align 8, !tbaa !8
  %44 = load i32, ptr %6, align 4, !tbaa !3
  %45 = icmp ne i32 %44, 0
  call void @lv_obj_set_style_arc_rounded(ptr noundef %43, i1 noundef zeroext %45, i32 noundef 0)
  %46 = load ptr, ptr %9, align 8, !tbaa !8
  %47 = load ptr, ptr %4, align 8, !tbaa !51
  call void @lv_obj_set_style_arc_image_src(ptr noundef %46, ptr noundef %47, i32 noundef 0)
  call void @llvm.lifetime.end.p0(i64 8, ptr %9) #5
  br label %48

48:                                               ; preds = %21
  %49 = load i32, ptr %8, align 4, !tbaa !3
  %50 = add i32 %49, 1
  store i32 %50, ptr %8, align 4, !tbaa !3
  br label %18, !llvm.loop !63

51:                                               ; preds = %18
  call void @llvm.lifetime.end.p0(i64 4, ptr %8) #5
  br label %52

52:                                               ; preds = %51
  %53 = load i32, ptr %7, align 4, !tbaa !3
  %54 = add i32 %53, 1
  store i32 %54, ptr %7, align 4, !tbaa !3
  br label %14, !llvm.loop !64

55:                                               ; preds = %14
  call void @llvm.lifetime.end.p0(i64 4, ptr %7) #5
  br label %56

56:                                               ; preds = %55
  %57 = load i32, ptr %6, align 4, !tbaa !3
  %58 = add i32 %57, 1
  store i32 %58, ptr %6, align 4, !tbaa !3
  br label %10, !llvm.loop !65

59:                                               ; preds = %10
  call void @llvm.lifetime.end.p0(i64 4, ptr %6) #5
  call void @llvm.lifetime.end.p0(i64 16, ptr %5) #5
  ret void
}