; Function Attrs: nounwind uwtable
define internal fastcc void @arc_core_cb(ptr noundef %0, ptr noundef %1) unnamed_addr #0 {
  br label %.preheader18

.preheader18:                                     ; preds = %2, %20
  %3 = phi i1 [ false, %2 ], [ true, %20 ]
  %4 = phi i1 [ true, %2 ], [ false, %20 ]
  %indvars.iv27 = phi i64 [ 0, %2 ], [ 4, %20 ]
  br label %.preheader

.preheader:                                       ; preds = %.preheader18, %19
  %indvars.iv23 = phi i64 [ 0, %.preheader18 ], [ %indvars.iv.next24, %19 ]
  %5 = add nuw nsw i64 %indvars.iv23, %indvars.iv27
  %6 = getelementptr inbounds nuw [4 x i32], ptr @__const.arc_core_cb.widths, i64 0, i64 %indvars.iv23
  %7 = load i32, ptr %6, align 4, !tbaa !19
  %8 = trunc nuw nsw i64 %5 to i32
  br label %9

9:                                                ; preds = %.preheader, %9
  %indvars.iv = phi i64 [ 0, %.preheader ], [ %indvars.iv.next, %9 ]
  %10 = getelementptr inbounds nuw [8 x [2 x float]], ptr @arc_core_cb.angles, i64 0, i64 %indvars.iv
  %11 = load float, ptr %10, align 8, !tbaa !68
  %12 = getelementptr inbounds nuw i8, ptr %10, i64 4
  %13 = load float, ptr %12, align 4, !tbaa !68
  %14 = tail call ptr @lv_arc_create(ptr noundef %0) #6
  tail call void @lv_obj_remove_style_all(ptr noundef %14) #6
  tail call void @lv_obj_set_style_arc_width(ptr noundef %14, i32 noundef %7, i32 noundef 0) #6
  %15 = tail call i24 @lv_color_white() #6
  tail call void @lv_obj_set_style_arc_color(ptr noundef %14, i24 %15, i32 noundef 0) #6
  %16 = load i8, ptr @opa_saved, align 1, !tbaa !3
  tail call void @lv_obj_set_style_opa(ptr noundef %14, i8 noundef zeroext %16, i32 noundef 0) #6
  tail call void @lv_arc_set_bg_angles(ptr noundef %14, float noundef %11, float noundef %13) #6
  tail call void @lv_obj_set_size(ptr noundef %14, i32 noundef 30, i32 noundef 30) #6
  %17 = tail call i24 @lv_color_hex3(i32 noundef 4080) #6
  tail call void @lv_obj_set_style_line_color(ptr noundef %14, i24 %17, i32 noundef 0) #6
  %18 = trunc nuw nsw i64 %indvars.iv to i32
  tail call void @lv_obj_set_grid_cell(ptr noundef %14, i32 noundef 1, i32 noundef range(i32 0, 8) %18, i32 noundef 1, i32 noundef 1, i32 noundef range(i32 0, 8) %8, i32 noundef 1) #6
  tail call void @lv_obj_set_style_arc_rounded(ptr noundef %14, i1 noundef zeroext %3, i32 noundef 0) #6
  tail call void @lv_obj_set_style_arc_image_src(ptr noundef %14, ptr noundef %1, i32 noundef 0) #6
  %indvars.iv.next = add nuw nsw i64 %indvars.iv, 1
  %exitcond.not = icmp eq i64 %indvars.iv.next, 8
  br i1 %exitcond.not, label %19, label %9, !llvm.loop !70

19:                                               ; preds = %9
  %indvars.iv.next24 = add nuw nsw i64 %indvars.iv23, 1
  %exitcond26.not = icmp eq i64 %indvars.iv.next24, 4
  br i1 %exitcond26.not, label %20, label %.preheader, !llvm.loop !71

20:                                               ; preds = %19
  br i1 %4, label %.preheader18, label %21, !llvm.loop !72

21:                                               ; preds = %20
  ret void
}